target datalayout = "e-m:e-p270:32:32-p271:32:32-p272:64:64-i64:64-i128:128-f80:128-n8:16:32:64-S128"
target triple = "x86_64-pc-linux-gnu"

%struct._rtpstream_tapinfo = type { ptr, ptr, ptr, ptr, i32, ptr, ptr, i32, i32, ptr, ptr, ptr, i32, i32 }

; Function Attrs: mustprogress uwtable
define void @_ZN15RtpStreamDialog7tapDrawEP18_rtpstream_tapinfo(ptr noundef %0) #0 align 2 {
  %2 = alloca ptr, align 8
  %3 = alloca ptr, align 8
  store ptr %0, ptr %2, align 8
  %4 = load ptr, ptr %2, align 8
  %5 = getelementptr inbounds %struct._rtpstream_tapinfo, ptr %4, i32 0, i32 3
  %6 = load ptr, ptr %5, align 8
  store ptr %6, ptr %3, align 8
  %7 = load ptr, ptr %3, align 8
  %8 = icmp ne ptr %7, null
  br i1 %8, label %9, label %11

9:                                                ; preds = %1
  %10 = load ptr, ptr %3, align 8
  call void @_ZN15RtpStreamDialog13updateStreamsEv(ptr noundef nonnull align 8 dereferenceable(360) %10)
  br label %11

11:                                               ; preds = %9, %1
  ret void
}