; Function Attrs: mustprogress uwtable
define void @_ZN15RtpStreamDialog7tapDrawEP18_rtpstream_tapinfo(ptr nocapture noundef readonly %0) #0 align 2 {
  %2 = getelementptr inbounds i8, ptr %0, i64 24
  %3 = load ptr, ptr %2, align 8
  %.not = icmp eq ptr %3, null
  br i1 %.not, label %5, label %4

4:                                                ; preds = %1
  tail call void @_ZN15RtpStreamDialog13updateStreamsEv(ptr noundef nonnull align 8 dereferenceable(360) %3)
  br label %5

5:                                                ; preds = %4, %1
  ret void
}